target datalayout = "e-m:e-p270:32:32-p271:32:32-p272:64:64-i64:64-i128:128-f80:128-n8:16:32:64-S128"
target triple = "x86_64-pc-linux-gnu"

%struct.lua_State = type { ptr, i8, i8, i8, i8, i16, %union.StkIdRel, ptr, ptr, %union.StkIdRel, %union.StkIdRel, ptr, %union.StkIdRel, ptr, ptr, ptr, %struct.CallInfo, ptr, i64, i32, i32, i32, i32, i32, %struct.anon.3 }
%union.StkIdRel = type { ptr }
%struct.CallInfo = type { %union.StkIdRel, %union.StkIdRel, ptr, ptr, %union.anon, %union.anon.2, i32 }
%union.anon = type { %struct.anon.1 }
%struct.anon.1 = type { ptr, i64, i64 }
%union.anon.2 = type { i32 }
%struct.anon.3 = type { i32, i32 }
%struct.SParser = type { ptr, %struct.Mbuffer, %struct.Dyndata, ptr, ptr }
%struct.Mbuffer = type { ptr, i64, i64 }
%struct.Dyndata = type { %struct.anon.8, %struct.Labellist, %struct.Labellist }
%struct.anon.8 = type { ptr, i32, i32 }
%struct.Labellist = type { ptr, i32, i32 }

; Function Attrs: nounwind uwtable
define hidden i32 @luaD_pcall(ptr noundef %0, ptr noundef %1, ptr noundef %2, i64 noundef %3, i64 noundef %4) #0 {
  %6 = alloca ptr, align 8
  %7 = alloca ptr, align 8
  %8 = alloca ptr, align 8
  %9 = alloca i64, align 8
  %10 = alloca i64, align 8
  %11 = alloca i32, align 4
  %12 = alloca ptr, align 8
  %13 = alloca i8, align 1
  %14 = alloca i64, align 8
  store ptr %0, ptr %6, align 8, !tbaa !4
  store ptr %1, ptr %7, align 8, !tbaa !47
  store ptr %2, ptr %8, align 8, !tbaa !47
  store i64 %3, ptr %9, align 8, !tbaa !59
  store i64 %4, ptr %10, align 8, !tbaa !59
  call void @llvm.lifetime.start.p0(i64 4, ptr %11) #11
  call void @llvm.lifetime.start.p0(i64 8, ptr %12) #11
  %15 = load ptr, ptr %6, align 8, !tbaa !4
  %16 = getelementptr inbounds nuw %struct.lua_State, ptr %15, i32 0, i32 8
  %17 = load ptr, ptr %16, align 8, !tbaa !53
  store ptr %17, ptr %12, align 8, !tbaa !54
  call void @llvm.lifetime.start.p0(i64 1, ptr %13) #11
  %18 = load ptr, ptr %6, align 8, !tbaa !4
  %19 = getelementptr inbounds nuw %struct.lua_State, ptr %18, i32 0, i32 4
  %20 = load i8, ptr %19, align 1, !tbaa !58
  store i8 %20, ptr %13, align 1, !tbaa !34
  call void @llvm.lifetime.start.p0(i64 8, ptr %14) #11
  %21 = load ptr, ptr %6, align 8, !tbaa !4
  %22 = getelementptr inbounds nuw %struct.lua_State, ptr %21, i32 0, i32 18
  %23 = load i64, ptr %22, align 8, !tbaa !92
  store i64 %23, ptr %14, align 8, !tbaa !59
  %24 = load i64, ptr %10, align 8, !tbaa !59
  %25 = load ptr, ptr %6, align 8, !tbaa !4
  %26 = getelementptr inbounds nuw %struct.lua_State, ptr %25, i32 0, i32 18
  store i64 %24, ptr %26, align 8, !tbaa !92
  %27 = load ptr, ptr %6, align 8, !tbaa !4
  %28 = load ptr, ptr %7, align 8, !tbaa !47
  %29 = load ptr, ptr %8, align 8, !tbaa !47
  %30 = call i32 @luaD_rawrunprotected(ptr noundef %27, ptr noundef %28, ptr noundef %29)
  store i32 %30, ptr %11, align 4, !tbaa !9
  %31 = load i32, ptr %11, align 4, !tbaa !9
  %32 = icmp ne i32 %31, 0
  %33 = zext i1 %32 to i32
  %34 = icmp ne i32 %33, 0
  %35 = zext i1 %34 to i32
  %36 = sext i32 %35 to i64
  %37 = call i64 @llvm.expect.i64(i64 %36, i64 0)
  %38 = icmp ne i64 %37, 0
  br i1 %38, label %39, label %58

39:                                               ; preds = %5
  %40 = load ptr, ptr %12, align 8, !tbaa !54
  %41 = load ptr, ptr %6, align 8, !tbaa !4
  %42 = getelementptr inbounds nuw %struct.lua_State, ptr %41, i32 0, i32 8
  store ptr %40, ptr %42, align 8, !tbaa !53
  %43 = load i8, ptr %13, align 1, !tbaa !34
  %44 = load ptr, ptr %6, align 8, !tbaa !4
  %45 = getelementptr inbounds nuw %struct.lua_State, ptr %44, i32 0, i32 4
  store i8 %43, ptr %45, align 1, !tbaa !58
  %46 = load ptr, ptr %6, align 8, !tbaa !4
  %47 = load i64, ptr %9, align 8, !tbaa !59
  %48 = load i32, ptr %11, align 4, !tbaa !9
  %49 = call i32 @luaD_closeprotected(ptr noundef %46, i64 noundef %47, i32 noundef %48)
  store i32 %49, ptr %11, align 4, !tbaa !9
  %50 = load ptr, ptr %6, align 8, !tbaa !4
  %51 = load i32, ptr %11, align 4, !tbaa !9
  %52 = load ptr, ptr %6, align 8, !tbaa !4
  %53 = getelementptr inbounds nuw %struct.lua_State, ptr %52, i32 0, i32 10
  %54 = load ptr, ptr %53, align 8, !tbaa !34
  %55 = load i64, ptr %9, align 8, !tbaa !59
  %56 = getelementptr inbounds i8, ptr %54, i64 %55
  call void @luaD_seterrorobj(ptr noundef %50, i32 noundef %51, ptr noundef %56)
  %57 = load ptr, ptr %6, align 8, !tbaa !4
  call void @luaD_shrinkstack(ptr noundef %57)
  br label %58

58:                                               ; preds = %39, %5
  %59 = load i64, ptr %14, align 8, !tbaa !59
  %60 = load ptr, ptr %6, align 8, !tbaa !4
  %61 = getelementptr inbounds nuw %struct.lua_State, ptr %60, i32 0, i32 18
  store i64 %59, ptr %61, align 8, !tbaa !92
  %62 = load i32, ptr %11, align 4, !tbaa !9
  call void @llvm.lifetime.end.p0(i64 8, ptr %14) #11
  call void @llvm.lifetime.end.p0(i64 1, ptr %13) #11
  call void @llvm.lifetime.end.p0(i64 8, ptr %12) #11
  call void @llvm.lifetime.end.p0(i64 4, ptr %11) #11
  ret i32 %62
}

; Function Attrs: nounwind uwtable
define hidden i32 @luaD_protectedparser(ptr noundef %0, ptr noundef %1, ptr noundef %2, ptr noundef %3) #0 {
  %5 = alloca ptr, align 8
  %6 = alloca ptr, align 8
  %7 = alloca ptr, align 8
  %8 = alloca ptr, align 8
  %9 = alloca %struct.SParser, align 8
  %10 = alloca i32, align 4
  store ptr %0, ptr %5, align 8, !tbaa !4
  store ptr %1, ptr %6, align 8, !tbaa !93
  store ptr %2, ptr %7, align 8, !tbaa !86
  store ptr %3, ptr %8, align 8, !tbaa !86
  call void @llvm.lifetime.start.p0(i64 96, ptr %9) #11
  call void @llvm.lifetime.start.p0(i64 4, ptr %10) #11
  %11 = load ptr, ptr %5, align 8, !tbaa !4
  %12 = getelementptr inbounds nuw %struct.lua_State, ptr %11, i32 0, i32 19
  %13 = load i32, ptr %12, align 8, !tbaa !48
  %14 = add i32 %13, 65536
  store i32 %14, ptr %12, align 8, !tbaa !48
  %15 = load ptr, ptr %6, align 8, !tbaa !93
  %16 = getelementptr inbounds nuw %struct.SParser, ptr %9, i32 0, i32 0
  store ptr %15, ptr %16, align 8, !tbaa !95
  %17 = load ptr, ptr %7, align 8, !tbaa !86
  %18 = getelementptr inbounds nuw %struct.SParser, ptr %9, i32 0, i32 4
  store ptr %17, ptr %18, align 8, !tbaa !103
  %19 = load ptr, ptr %8, align 8, !tbaa !86
  %20 = getelementptr inbounds nuw %struct.SParser, ptr %9, i32 0, i32 3
  store ptr %19, ptr %20, align 8, !tbaa !104
  %21 = getelementptr inbounds nuw %struct.SParser, ptr %9, i32 0, i32 2
  %22 = getelementptr inbounds nuw %struct.Dyndata, ptr %21, i32 0, i32 0
  %23 = getelementptr inbounds nuw %struct.anon.8, ptr %22, i32 0, i32 0
  store ptr null, ptr %23, align 8, !tbaa !105
  %24 = getelementptr inbounds nuw %struct.SParser, ptr %9, i32 0, i32 2
  %25 = getelementptr inbounds nuw %struct.Dyndata, ptr %24, i32 0, i32 0
  %26 = getelementptr inbounds nuw %struct.anon.8, ptr %25, i32 0, i32 2
  store i32 0, ptr %26, align 4, !tbaa !106
  %27 = getelementptr inbounds nuw %struct.SParser, ptr %9, i32 0, i32 2
  %28 = getelementptr inbounds nuw %struct.Dyndata, ptr %27, i32 0, i32 1
  %29 = getelementptr inbounds nuw %struct.Labellist, ptr %28, i32 0, i32 0
  store ptr null, ptr %29, align 8, !tbaa !107
  %30 = getelementptr inbounds nuw %struct.SParser, ptr %9, i32 0, i32 2
  %31 = getelementptr inbounds nuw %struct.Dyndata, ptr %30, i32 0, i32 1
  %32 = getelementptr inbounds nuw %struct.Labellist, ptr %31, i32 0, i32 2
  store i32 0, ptr %32, align 4, !tbaa !108
  %33 = getelementptr inbounds nuw %struct.SParser, ptr %9, i32 0, i32 2
  %34 = getelementptr inbounds nuw %struct.Dyndata, ptr %33, i32 0, i32 2
  %35 = getelementptr inbounds nuw %struct.Labellist, ptr %34, i32 0, i32 0
  store ptr null, ptr %35, align 8, !tbaa !109
  %36 = getelementptr inbounds nuw %struct.SParser, ptr %9, i32 0, i32 2
  %37 = getelementptr inbounds nuw %struct.Dyndata, ptr %36, i32 0, i32 2
  %38 = getelementptr inbounds nuw %struct.Labellist, ptr %37, i32 0, i32 2
  store i32 0, ptr %38, align 4, !tbaa !110
  %39 = getelementptr inbounds nuw %struct.SParser, ptr %9, i32 0, i32 1
  %40 = getelementptr inbounds nuw %struct.Mbuffer, ptr %39, i32 0, i32 0
  store ptr null, ptr %40, align 8, !tbaa !111
  %41 = getelementptr inbounds nuw %struct.SParser, ptr %9, i32 0, i32 1
  %42 = getelementptr inbounds nuw %struct.Mbuffer, ptr %41, i32 0, i32 2
  store i64 0, ptr %42, align 8, !tbaa !112
  %43 = load ptr, ptr %5, align 8, !tbaa !4
  %44 = load ptr, ptr %5, align 8, !tbaa !4
  %45 = getelementptr inbounds nuw %struct.lua_State, ptr %44, i32 0, i32 6
  %46 = load ptr, ptr %45, align 8, !tbaa !34
  %47 = load ptr, ptr %5, align 8, !tbaa !4
  %48 = getelementptr inbounds nuw %struct.lua_State, ptr %47, i32 0, i32 10
  %49 = load ptr, ptr %48, align 8, !tbaa !34
  %50 = ptrtoint ptr %46 to i64
  %51 = ptrtoint ptr %49 to i64
  %52 = sub i64 %50, %51
  %53 = load ptr, ptr %5, align 8, !tbaa !4
  %54 = getelementptr inbounds nuw %struct.lua_State, ptr %53, i32 0, i32 18
  %55 = load i64, ptr %54, align 8, !tbaa !92
  %56 = call i32 @luaD_pcall(ptr noundef %43, ptr noundef @f_parser, ptr noundef %9, i64 noundef %52, i64 noundef %55)
  store i32 %56, ptr %10, align 4, !tbaa !9
  %57 = load ptr, ptr %5, align 8, !tbaa !4
  %58 = getelementptr inbounds nuw %struct.SParser, ptr %9, i32 0, i32 1
  %59 = getelementptr inbounds nuw %struct.Mbuffer, ptr %58, i32 0, i32 0
  %60 = load ptr, ptr %59, align 8, !tbaa !111
  %61 = getelementptr inbounds nuw %struct.SParser, ptr %9, i32 0, i32 1
  %62 = getelementptr inbounds nuw %struct.Mbuffer, ptr %61, i32 0, i32 2
  %63 = load i64, ptr %62, align 8, !tbaa !112
  %64 = mul i64 %63, 1
  %65 = call ptr @luaM_saferealloc_(ptr noundef %57, ptr noundef %60, i64 noundef %64, i64 noundef 0)
  %66 = getelementptr inbounds nuw %struct.SParser, ptr %9, i32 0, i32 1
  %67 = getelementptr inbounds nuw %struct.Mbuffer, ptr %66, i32 0, i32 0
  store ptr %65, ptr %67, align 8, !tbaa !111
  %68 = getelementptr inbounds nuw %struct.SParser, ptr %9, i32 0, i32 1
  %69 = getelementptr inbounds nuw %struct.Mbuffer, ptr %68, i32 0, i32 2
  store i64 0, ptr %69, align 8, !tbaa !112
  %70 = load ptr, ptr %5, align 8, !tbaa !4
  %71 = getelementptr inbounds nuw %struct.SParser, ptr %9, i32 0, i32 2
  %72 = getelementptr inbounds nuw %struct.Dyndata, ptr %71, i32 0, i32 0
  %73 = getelementptr inbounds nuw %struct.anon.8, ptr %72, i32 0, i32 0
  %74 = load ptr, ptr %73, align 8, !tbaa !105
  %75 = getelementptr inbounds nuw %struct.SParser, ptr %9, i32 0, i32 2
  %76 = getelementptr inbounds nuw %struct.Dyndata, ptr %75, i32 0, i32 0
  %77 = getelementptr inbounds nuw %struct.anon.8, ptr %76, i32 0, i32 2
  %78 = load i32, ptr %77, align 4, !tbaa !106
  %79 = sext i32 %78 to i64
  %80 = mul i64 %79, 24
  call void @luaM_free_(ptr noundef %70, ptr noundef %74, i64 noundef %80)
  %81 = load ptr, ptr %5, align 8, !tbaa !4
  %82 = getelementptr inbounds nuw %struct.SParser, ptr %9, i32 0, i32 2
  %83 = getelementptr inbounds nuw %struct.Dyndata, ptr %82, i32 0, i32 1
  %84 = getelementptr inbounds nuw %struct.Labellist, ptr %83, i32 0, i32 0
  %85 = load ptr, ptr %84, align 8, !tbaa !107
  %86 = getelementptr inbounds nuw %struct.SParser, ptr %9, i32 0, i32 2
  %87 = getelementptr inbounds nuw %struct.Dyndata, ptr %86, i32 0, i32 1
  %88 = getelementptr inbounds nuw %struct.Labellist, ptr %87, i32 0, i32 2
  %89 = load i32, ptr %88, align 4, !tbaa !108
  %90 = sext i32 %89 to i64
  %91 = mul i64 %90, 24
  call void @luaM_free_(ptr noundef %81, ptr noundef %85, i64 noundef %91)
  %92 = load ptr, ptr %5, align 8, !tbaa !4
  %93 = getelementptr inbounds nuw %struct.SParser, ptr %9, i32 0, i32 2
  %94 = getelementptr inbounds nuw %struct.Dyndata, ptr %93, i32 0, i32 2
  %95 = getelementptr inbounds nuw %struct.Labellist, ptr %94, i32 0, i32 0
  %96 = load ptr, ptr %95, align 8, !tbaa !109
  %97 = getelementptr inbounds nuw %struct.SParser, ptr %9, i32 0, i32 2
  %98 = getelementptr inbounds nuw %struct.Dyndata, ptr %97, i32 0, i32 2
  %99 = getelementptr inbounds nuw %struct.Labellist, ptr %98, i32 0, i32 2
  %100 = load i32, ptr %99, align 4, !tbaa !110
  %101 = sext i32 %100 to i64
  %102 = mul i64 %101, 24
  call void @luaM_free_(ptr noundef %92, ptr noundef %96, i64 noundef %102)
  %103 = load ptr, ptr %5, align 8, !tbaa !4
  %104 = getelementptr inbounds nuw %struct.lua_State, ptr %103, i32 0, i32 19
  %105 = load i32, ptr %104, align 8, !tbaa !48
  %106 = sub i32 %105, 65536
  store i32 %106, ptr %104, align 8, !tbaa !48
  %107 = load i32, ptr %10, align 4, !tbaa !9
  call void @llvm.lifetime.end.p0(i64 4, ptr %10) #11
  call void @llvm.lifetime.end.p0(i64 96, ptr %9) #11
  ret i32 %107
}