; Function Attrs: nounwind uwtable
define hidden noundef i32 @luaD_protectedparser(ptr noundef %0, ptr noundef %1, ptr noundef %2, ptr noundef %3) local_unnamed_addr #0 {
  %5 = alloca %struct.SParser, align 8
  call void @llvm.lifetime.start.p0(i64 96, ptr nonnull %5) #13
  %6 = getelementptr inbounds nuw i8, ptr %0, i64 176
  %7 = load i32, ptr %6, align 8, !tbaa !38
  %8 = add i32 %7, 65536
  store i32 %8, ptr %6, align 8, !tbaa !38
  store ptr %1, ptr %5, align 8, !tbaa !83
  %9 = getelementptr inbounds nuw i8, ptr %5, i64 88
  store ptr %2, ptr %9, align 8, !tbaa !92
  %10 = getelementptr inbounds nuw i8, ptr %5, i64 80
  store ptr %3, ptr %10, align 8, !tbaa !93
  %11 = getelementptr inbounds nuw i8, ptr %5, i64 44
  store i32 0, ptr %11, align 4, !tbaa !94
  %12 = getelementptr inbounds nuw i8, ptr %5, i64 48
  store ptr null, ptr %12, align 8, !tbaa !95
  %13 = getelementptr inbounds nuw i8, ptr %5, i64 60
  store i32 0, ptr %13, align 4, !tbaa !96
  %14 = getelementptr inbounds nuw i8, ptr %5, i64 64
  store ptr null, ptr %14, align 8, !tbaa !97
  %15 = getelementptr inbounds nuw i8, ptr %5, i64 76
  store i32 0, ptr %15, align 4, !tbaa !98
  %16 = getelementptr inbounds nuw i8, ptr %5, i64 8
  store ptr null, ptr %16, align 8, !tbaa !99
  %17 = getelementptr inbounds nuw i8, ptr %5, i64 24
  %18 = getelementptr inbounds nuw i8, ptr %0, i64 16
  call void @llvm.memset.p0.i64(ptr noundef nonnull align 8 dereferenceable(16) %17, i8 0, i64 16, i1 false)
  %19 = load ptr, ptr %18, align 8, !tbaa !27
  %20 = getelementptr inbounds nuw i8, ptr %0, i64 48
  %21 = load ptr, ptr %20, align 8, !tbaa !27
  %22 = getelementptr inbounds nuw i8, ptr %0, i64 168
  %23 = load i64, ptr %22, align 8, !tbaa !82
  %24 = getelementptr inbounds nuw i8, ptr %0, i64 32
  %25 = load ptr, ptr %24, align 8, !tbaa !46
  %26 = getelementptr inbounds nuw i8, ptr %0, i64 11
  %27 = load i8, ptr %26, align 1, !tbaa !45
  %28 = call i32 @luaD_rawrunprotected(ptr noundef %0, ptr noundef nonnull @f_parser, ptr noundef nonnull %5)
  %.not.i = icmp eq i32 %28, 0
  br i1 %.not.i, label %luaD_pcall.exit, label %29, !prof !66

29:                                               ; preds = %4
  %30 = ptrtoint ptr %19 to i64
  %31 = ptrtoint ptr %21 to i64
  %32 = sub i64 %30, %31
  store ptr %25, ptr %24, align 8, !tbaa !46
  store i8 %27, ptr %26, align 1, !tbaa !45
  %33 = call i32 @luaD_closeprotected(ptr noundef nonnull %0, i64 noundef %32, i32 noundef %28)
  %34 = load ptr, ptr %20, align 8, !tbaa !27
  %35 = getelementptr inbounds i8, ptr %34, i64 %32
  call void @luaD_seterrorobj(ptr noundef nonnull %0, i32 noundef %33, ptr noundef %35)
  call void @luaD_shrinkstack(ptr noundef nonnull %0)
  br label %luaD_pcall.exit

luaD_pcall.exit:                                  ; preds = %4, %29
  %.0.i = phi i32 [ %33, %29 ], [ 0, %4 ]
  %36 = getelementptr inbounds nuw i8, ptr %5, i64 32
  store i64 %23, ptr %22, align 8, !tbaa !82
  %37 = load ptr, ptr %16, align 8, !tbaa !99
  %38 = load i64, ptr %17, align 8, !tbaa !100
  %39 = call ptr @luaM_saferealloc_(ptr noundef nonnull %0, ptr noundef %37, i64 noundef %38, i64 noundef 0) #13
  store ptr %39, ptr %16, align 8, !tbaa !99
  store i64 0, ptr %17, align 8, !tbaa !100
  %40 = load ptr, ptr %36, align 8, !tbaa !101
  %41 = load i32, ptr %11, align 4, !tbaa !94
  %42 = sext i32 %41 to i64
  %43 = mul nsw i64 %42, 24
  call void @luaM_free_(ptr noundef nonnull %0, ptr noundef %40, i64 noundef %43) #13
  %44 = load ptr, ptr %12, align 8, !tbaa !95
  %45 = load i32, ptr %13, align 4, !tbaa !96
  %46 = sext i32 %45 to i64
  %47 = mul nsw i64 %46, 24
  call void @luaM_free_(ptr noundef nonnull %0, ptr noundef %44, i64 noundef %47) #13
  %48 = load ptr, ptr %14, align 8, !tbaa !97
  %49 = load i32, ptr %15, align 4, !tbaa !98
  %50 = sext i32 %49 to i64
  %51 = mul nsw i64 %50, 24
  call void @luaM_free_(ptr noundef nonnull %0, ptr noundef %48, i64 noundef %51) #13
  %52 = load i32, ptr %6, align 8, !tbaa !38
  %53 = add i32 %52, -65536
  store i32 %53, ptr %6, align 8, !tbaa !38
  call void @llvm.lifetime.end.p0(i64 96, ptr nonnull %5) #13
  ret i32 %.0.i
}